; Function Attrs: null_pointer_is_valid sspstrong uwtable
define hidden i32 @srvsvc_dissect_enum_ShareType(ptr noundef %0, i32 noundef %1, ptr noundef %2, ptr noundef %3, ptr noundef %4, ptr noundef %5, i32 noundef %6, ptr noundef captures(address_is_null) %7) local_unnamed_addr #0 {
  %9 = alloca i32, align 4
  call void @llvm.lifetime.start.p0(i64 4, ptr nonnull %9) #4
  store i32 0, ptr %9, align 4
  %.not = icmp eq ptr %7, null
  br i1 %.not, label %.thread, label %11

.thread:                                          ; preds = %8
  %10 = call i32 @dissect_ndr_uint32(ptr noundef %0, i32 noundef %1, ptr noundef %2, ptr noundef %3, ptr noundef %4, ptr noundef %5, i32 noundef %6, ptr noundef nonnull %9)
  br label %15

11:                                               ; preds = %8
  %12 = load i32, ptr %7, align 4
  store i32 %12, ptr %9, align 4
  %13 = call i32 @dissect_ndr_uint32(ptr noundef %0, i32 noundef %1, ptr noundef %2, ptr noundef %3, ptr noundef %4, ptr noundef %5, i32 noundef %6, ptr noundef nonnull %9)
  %14 = load i32, ptr %9, align 4
  store i32 %14, ptr %7, align 4
  br label %15

15:                                               ; preds = %.thread, %11
  %16 = phi i32 [ %10, %.thread ], [ %13, %11 ]
  call void @llvm.lifetime.end.p0(i64 4, ptr nonnull %9) #4
  ret i32 %16
}